Certificate:
    Data:
        Version: 3 (0x2)
        Serial Number:
            f5:ea:ff:3b:d7:09:44:7e:89:06:f4:14:bf:36:04:dc
        Signature Algorithm: sha256WithRSAEncryption
        Issuer: CN=openvpn-server
        Validity
            Not Before: Jan  1 21:43:33 2025 GMT
            Not After : Apr  6 21:43:33 2027 GMT
        Subject: CN=vpnclient1
        Subject Public Key Info:
            Public Key Algorithm: rsaEncryption
                Public-Key: (2048 bit)
                Modulus:
                    00:bf:6d:78:76:ed:7a:7e:d7:3c:bf:eb:aa:37:15:
                    d5:dd:44:05:33:69:ac:e2:9a:bd:03:3b:a7:b7:a8:
                    7e:58:b2:01:92:29:d8:84:fa:ed:6e:71:27:eb:4c:
                    79:4e:29:f6:78:7c:6d:80:ec:65:d2:60:43:ef:ff:
                    d1:30:09:75:69:54:1e:af:b7:83:2f:b2:e2:4a:d8:
                    3c:dc:f0:2b:7c:69:5e:cc:d8:af:91:1b:be:88:f2:
                    07:0e:c5:3e:da:55:c1:3e:cc:aa:bf:f5:00:1d:3d:
                    c3:eb:01:5c:5f:bc:6a:95:36:db:0b:e5:8c:97:63:
                    86:37:a4:09:26:ae:f6:af:0c:ec:f9:a3:26:e3:4d:
                    3c:f1:44:aa:c1:5b:15:7d:78:12:f5:cd:b3:db:ce:
                    46:27:bc:75:28:81:a1:22:fa:99:1d:dd:36:8a:ab:
                    1c:41:da:5c:d6:22:a2:3a:79:5b:75:09:23:b1:42:
                    1e:3e:b0:41:c7:d1:b6:6c:32:8a:94:5c:d7:7e:84:
                    08:70:8b:ce:68:af:bb:d2:79:71:d9:fa:cd:fe:32:
                    30:1b:a1:49:e6:04:3e:bf:0c:ff:32:4e:d5:ba:70:
                    7a:cb:b9:70:c9:c8:60:70:54:b8:9e:86:cc:b3:99:
                    f7:09:88:fa:fe:59:bf:e7:ff:f1:45:31:10:69:ce:
                    b7:5d
                Exponent: 65537 (0x10001)
        X509v3 extensions:
            X509v3 Basic Constraints: 
                CA:FALSE
            X509v3 Subject Key Identifier: 
                04:F0:70:CF:4E:00:44:38:93:73:55:51:A0:6B:5C:26:54:65:E1:0D
            X509v3 Authority Key Identifier: 
                keyid:FF:0D:92:6F:99:B3:AB:E6:32:DF:A8:84:9C:7C:AB:0E:58:65:03:25
                DirName:/CN=openvpn-server
                serial:4F:DB:93:90:88:A2:6C:0C:8C:E8:E3:09:10:0E:02:A1:71:C7:7A:33
            X509v3 Extended Key Usage: 
                TLS Web Client Authentication
            X509v3 Key Usage: 
                Digital Signature
    Signature Algorithm: sha256WithRSAEncryption
    Signature Value:
        bb:3f:0e:72:de:16:a8:16:56:44:a2:36:a8:d0:23:04:e8:2d:
        42:40:f8:7d:ba:11:17:dc:c3:97:60:a4:5c:69:a4:e0:bf:96:
        89:98:b4:ea:fb:ad:1b:aa:1e:28:ab:33:37:45:75:24:30:b6:
        e6:2e:80:e6:66:5e:f9:db:f3:ec:1c:a0:a1:cf:46:6c:0e:2b:
        ce:9b:18:65:97:ec:ba:38:e4:f2:2a:f4:e8:ea:53:d1:3d:70:
        87:6b:19:29:75:c4:80:c6:84:1a:ce:32:0d:fb:a1:89:c0:76:
        47:7a:dc:f2:e5:70:9b:01:e7:42:ae:12:e3:5d:59:59:6f:e1:
        e7:79:b5:30:c3:b1:83:eb:de:9b:ba:a5:7f:59:15:62:a9:3d:
        d5:5c:d7:7c:11:87:63:67:b5:d0:ab:07:ce:9f:cf:f7:03:07:
        0e:f3:01:f5:a3:bb:9d:27:c1:18:db:dc:48:17:c0:b2:6e:79:
        83:3b:80:60:cf:95:a5:75:12:80:38:d1:c8:5b:98:55:ad:4c:
        5a:fa:2a:9f:37:ef:2a:13:6e:6f:8e:f4:89:54:51:3e:b8:3b:
        7f:42:7e:63:09:ce:39:14:87:88:d8:64:61:4d:9e:b4:de:d4:
        fe:bd:17:67:ba:a7:00:9d:70:d9:8a:e9:25:d6:11:f7:64:75:
        8f:94:00:04
-----BEGIN CERTIFICATE-----
MIIDXzCCAkegAwIBAgIRAPXq/zvXCUR+iQb0FL82BNwwDQYJKoZIhvcNAQELBQAw
GTEXMBUGA1UEAwwOb3BlbnZwbi1zZXJ2ZXIwHhcNMjUwMTAxMjE0MzMzWhcNMjcw
NDA2MjE0MzMzWjAVMRMwEQYDVQQDDAp2cG5jbGllbnQxMIIBIjANBgkqhkiG9w0B
AQEFAAOCAQ8AMIIBCgKCAQEAv214du16ftc8v+uqNxXV3UQFM2ms4pq9Azunt6h+
WLIBkinYhPrtbnEn60x5Tin2eHxtgOxl0mBD7//RMAl1aVQer7eDL7LiStg83PAr
fGlezNivkRu+iPIHDsU+2lXBPsyqv/UAHT3D6wFcX7xqlTbbC+WMl2OGN6QJJq72
rwzs+aMm40088USqwVsVfXgS9c2z285GJ7x1KIGhIvqZHd02iqscQdpc1iKiOnlb
dQkjsUIePrBBx9G2bDKKlFzXfoQIcIvOaK+70nlx2frN/jIwG6FJ5gQ+vwz/Mk7V
unB6y7lwychgcFS4nobMs5n3CYj6/lm/5//xRTEQac63XQIDAQABo4GlMIGiMAkG
A1UdEwQCMAAwHQYDVR0OBBYEFATwcM9OAEQ4k3NVUaBrXCZUZeENMFQGA1UdIwRN
MEuAFP8Nkm+Zs6vmMt+ohJx8qw5YZQMloR2kGzAZMRcwFQYDVQQDDA5vcGVudnBu
LXNlcnZlcoIUT9uTkIiibAyM6OMJEA4CoXHHejMwEwYDVR0lBAwwCgYIKwYBBQUH
AwIwCwYDVR0PBAQDAgeAMA0GCSqGSIb3DQEBCwUAA4IBAQC7Pw5y3haoFlZEojao
0CME6C1CQPh9uhEX3MOXYKRcaaTgv5aJmLTq+60bqh4oqzM3RXUkMLbmLoDmZl75
2/PsHKChz0ZsDivOmxhll+y6OOTyKvTo6lPRPXCHaxkpdcSAxoQazjIN+6GJwHZH
etzy5XCbAedCrhLjXVlZb+HnebUww7GD696buqV/WRViqT3VXNd8EYdjZ7XQqwfO
n8/3AwcO8wH1o7udJ8EY29xIF8CybnmDO4Bgz5WldRKAONHIW5hVrUxa+iqfN+8q
E25vjvSJVFE+uDt/Qn5jCc45FIeI2GRhTZ603tT+vRdnuqcAnXDZiukl1hH3ZHWP
lAAE
-----END CERTIFICATE-----
